target datalayout = "e-m:e-p270:32:32-p271:32:32-p272:64:64-i64:64-i128:128-f80:128-n8:16:32:64-S128"
target triple = "x86_64-pc-linux-gnu"

; Function Attrs: nounwind uwtable
define internal i32 @hexchar2int(i8 noundef signext %0) #0 {
  %2 = alloca i32, align 4
  %3 = alloca i8, align 1
  store i8 %0, ptr %3, align 1, !tbaa !35
  %4 = load i8, ptr %3, align 1, !tbaa !35
  %5 = sext i8 %4 to i32
  %6 = icmp sge i32 %5, 48
  br i1 %6, label %7, label %15

7:                                                ; preds = %1
  %8 = load i8, ptr %3, align 1, !tbaa !35
  %9 = sext i8 %8 to i32
  %10 = icmp sle i32 %9, 57
  br i1 %10, label %11, label %15

11:                                               ; preds = %7
  %12 = load i8, ptr %3, align 1, !tbaa !35
  %13 = sext i8 %12 to i32
  %14 = sub nsw i32 %13, 48
  store i32 %14, ptr %2, align 4
  br label %42

15:                                               ; preds = %7, %1
  %16 = load i8, ptr %3, align 1, !tbaa !35
  %17 = sext i8 %16 to i32
  %18 = icmp sge i32 %17, 97
  br i1 %18, label %19, label %28

19:                                               ; preds = %15
  %20 = load i8, ptr %3, align 1, !tbaa !35
  %21 = sext i8 %20 to i32
  %22 = icmp sle i32 %21, 102
  br i1 %22, label %23, label %28

23:                                               ; preds = %19
  %24 = load i8, ptr %3, align 1, !tbaa !35
  %25 = sext i8 %24 to i32
  %26 = sub nsw i32 %25, 97
  %27 = add nsw i32 %26, 10
  store i32 %27, ptr %2, align 4
  br label %42

28:                                               ; preds = %19, %15
  %29 = load i8, ptr %3, align 1, !tbaa !35
  %30 = sext i8 %29 to i32
  %31 = icmp sge i32 %30, 65
  br i1 %31, label %32, label %41

32:                                               ; preds = %28
  %33 = load i8, ptr %3, align 1, !tbaa !35
  %34 = sext i8 %33 to i32
  %35 = icmp sle i32 %34, 70
  br i1 %35, label %36, label %41

36:                                               ; preds = %32
  %37 = load i8, ptr %3, align 1, !tbaa !35
  %38 = sext i8 %37 to i32
  %39 = sub nsw i32 %38, 65
  %40 = add nsw i32 %39, 10
  store i32 %40, ptr %2, align 4
  br label %42

41:                                               ; preds = %32, %28
  store i32 -1, ptr %2, align 4
  br label %42

42:                                               ; preds = %41, %36, %23, %11
  %43 = load i32, ptr %2, align 4
  ret i32 %43
}

; Function Attrs: nounwind uwtable
define internal i32 @set_string_binary(ptr noundef %0, ptr noundef %1, ptr noundef %2, ptr noundef %3) #0 {
  %5 = alloca i32, align 4
  %6 = alloca ptr, align 8
  %7 = alloca ptr, align 8
  %8 = alloca ptr, align 8
  %9 = alloca ptr, align 8
  %10 = alloca ptr, align 8
  %11 = alloca ptr, align 8
  %12 = alloca ptr, align 8
  %13 = alloca i32, align 4
  %14 = alloca i32, align 4
  %15 = alloca i32, align 4
  %16 = alloca i32, align 4
  store ptr %0, ptr %6, align 8, !tbaa !4
  store ptr %1, ptr %7, align 8, !tbaa !8
  store ptr %2, ptr %8, align 8, !tbaa !19
  store ptr %3, ptr %9, align 8, !tbaa !63
  call void @llvm.lifetime.start.p0(i64 8, ptr %10) #11
  %17 = load ptr, ptr %9, align 8, !tbaa !63
  %18 = getelementptr inbounds ptr, ptr %17, i64 1
  store ptr %18, ptr %10, align 8, !tbaa !30
  call void @llvm.lifetime.start.p0(i64 8, ptr %11) #11
  call void @llvm.lifetime.start.p0(i64 8, ptr %12) #11
  call void @llvm.lifetime.start.p0(i64 4, ptr %13) #11
  %19 = load ptr, ptr %9, align 8, !tbaa !63
  call void @av_freep(ptr noundef %19)
  %20 = load ptr, ptr %10, align 8, !tbaa !30
  store i32 0, ptr %20, align 4, !tbaa !20
  %21 = load ptr, ptr %8, align 8, !tbaa !19
  %22 = icmp ne ptr %21, null
  br i1 %22, label %23, label %28

23:                                               ; preds = %4
  %24 = load ptr, ptr %8, align 8, !tbaa !19
  %25 = call i64 @strlen(ptr noundef %24) #12
  %26 = trunc i64 %25 to i32
  store i32 %26, ptr %13, align 4, !tbaa !20
  %27 = icmp ne i32 %26, 0
  br i1 %27, label %29, label %28

28:                                               ; preds = %23, %4
  store i32 0, ptr %5, align 4
  store i32 1, ptr %14, align 4
  br label %80

29:                                               ; preds = %23
  %30 = load i32, ptr %13, align 4, !tbaa !20
  %31 = and i32 %30, 1
  %32 = icmp ne i32 %31, 0
  br i1 %32, label %33, label %34

33:                                               ; preds = %29
  store i32 -22, ptr %5, align 4
  store i32 1, ptr %14, align 4
  br label %80

34:                                               ; preds = %29
  %35 = load i32, ptr %13, align 4, !tbaa !20
  %36 = sdiv i32 %35, 2
  store i32 %36, ptr %13, align 4, !tbaa !20
  %37 = load i32, ptr %13, align 4, !tbaa !20
  %38 = sext i32 %37 to i64
  %39 = call noalias ptr @av_malloc(i64 noundef %38)
  store ptr %39, ptr %11, align 8, !tbaa !19
  store ptr %39, ptr %12, align 8, !tbaa !19
  %40 = load ptr, ptr %12, align 8, !tbaa !19
  %41 = icmp ne ptr %40, null
  br i1 %41, label %43, label %42

42:                                               ; preds = %34
  store i32 -12, ptr %5, align 4
  store i32 1, ptr %14, align 4
  br label %80

43:                                               ; preds = %34
  br label %44

44:                                               ; preds = %74, %43
  %45 = load ptr, ptr %8, align 8, !tbaa !19
  %46 = load i8, ptr %45, align 1, !tbaa !35
  %47 = icmp ne i8 %46, 0
  br i1 %47, label %48, label %75

48:                                               ; preds = %44
  call void @llvm.lifetime.start.p0(i64 4, ptr %15) #11
  %49 = load ptr, ptr %8, align 8, !tbaa !19
  %50 = getelementptr inbounds nuw i8, ptr %49, i32 1
  store ptr %50, ptr %8, align 8, !tbaa !19
  %51 = load i8, ptr %49, align 1, !tbaa !35
  %52 = call i32 @hexchar2int(i8 noundef signext %51)
  store i32 %52, ptr %15, align 4, !tbaa !20
  call void @llvm.lifetime.start.p0(i64 4, ptr %16) #11
  %53 = load ptr, ptr %8, align 8, !tbaa !19
  %54 = getelementptr inbounds nuw i8, ptr %53, i32 1
  store ptr %54, ptr %8, align 8, !tbaa !19
  %55 = load i8, ptr %53, align 1, !tbaa !35
  %56 = call i32 @hexchar2int(i8 noundef signext %55)
  store i32 %56, ptr %16, align 4, !tbaa !20
  %57 = load i32, ptr %15, align 4, !tbaa !20
  %58 = icmp slt i32 %57, 0
  br i1 %58, label %62, label %59

59:                                               ; preds = %48
  %60 = load i32, ptr %16, align 4, !tbaa !20
  %61 = icmp slt i32 %60, 0
  br i1 %61, label %62, label %64

62:                                               ; preds = %59, %48
  %63 = load ptr, ptr %11, align 8, !tbaa !19
  call void @av_free(ptr noundef %63)
  store i32 -22, ptr %5, align 4
  store i32 1, ptr %14, align 4
  br label %72

64:                                               ; preds = %59
  %65 = load i32, ptr %15, align 4, !tbaa !20
  %66 = shl i32 %65, 4
  %67 = load i32, ptr %16, align 4, !tbaa !20
  %68 = or i32 %66, %67
  %69 = trunc i32 %68 to i8
  %70 = load ptr, ptr %12, align 8, !tbaa !19
  %71 = getelementptr inbounds nuw i8, ptr %70, i32 1
  store ptr %71, ptr %12, align 8, !tbaa !19
  store i8 %69, ptr %70, align 1, !tbaa !35
  store i32 0, ptr %14, align 4
  br label %72

72:                                               ; preds = %64, %62
  call void @llvm.lifetime.end.p0(i64 4, ptr %16) #11
  call void @llvm.lifetime.end.p0(i64 4, ptr %15) #11
  %73 = load i32, ptr %14, align 4
  switch i32 %73, label %80 [
    i32 0, label %74
  ]

74:                                               ; preds = %72
  br label %44, !llvm.loop !97

75:                                               ; preds = %44
  %76 = load ptr, ptr %11, align 8, !tbaa !19
  %77 = load ptr, ptr %9, align 8, !tbaa !63
  store ptr %76, ptr %77, align 8, !tbaa !19
  %78 = load i32, ptr %13, align 4, !tbaa !20
  %79 = load ptr, ptr %10, align 8, !tbaa !30
  store i32 %78, ptr %79, align 4, !tbaa !20
  store i32 0, ptr %5, align 4
  store i32 1, ptr %14, align 4
  br label %80

80:                                               ; preds = %75, %72, %42, %33, %28
  call void @llvm.lifetime.end.p0(i64 4, ptr %13) #11
  call void @llvm.lifetime.end.p0(i64 8, ptr %12) #11
  call void @llvm.lifetime.end.p0(i64 8, ptr %11) #11
  call void @llvm.lifetime.end.p0(i64 8, ptr %10) #11
  %81 = load i32, ptr %5, align 4
  ret i32 %81
}