; Function Attrs: nounwind uwtable
define internal fastcc range(i32 -22, 1) i32 @set_string_binary(ptr noundef readonly captures(address_is_null) %0, ptr noundef %1) unnamed_addr #2 {
  %3 = getelementptr inbounds nuw i8, ptr %1, i64 8
  tail call void @av_freep(ptr noundef %1) #18
  store i32 0, ptr %3, align 4, !tbaa !26
  %.not = icmp eq ptr %0, null
  br i1 %.not, label %48, label %4

4:                                                ; preds = %2
  %5 = tail call i64 @strlen(ptr noundef nonnull dereferenceable(1) %0) #19
  %6 = trunc i64 %5 to i32
  %.not34 = icmp eq i32 %6, 0
  br i1 %.not34, label %48, label %7

7:                                                ; preds = %4
  %8 = and i32 %6, 1
  %.not35 = icmp eq i32 %8, 0
  br i1 %.not35, label %9, label %48

9:                                                ; preds = %7
  %10 = ashr exact i32 %6, 1
  %11 = sext i32 %10 to i64
  %12 = tail call noalias ptr @av_malloc(i64 noundef %11) #18
  %.not36 = icmp eq ptr %12, null
  br i1 %.not36, label %48, label %.preheader

.preheader:                                       ; preds = %9
  %13 = load i8, ptr %0, align 1, !tbaa !29
  %.not372 = icmp eq i8 %13, 0
  br i1 %.not372, label %._crit_edge, label %.lr.ph

.lr.ph:                                           ; preds = %.preheader, %42
  %14 = phi i8 [ %47, %42 ], [ %13, %.preheader ]
  %.0244 = phi ptr [ %27, %42 ], [ %0, %.preheader ]
  %.0263 = phi ptr [ %46, %42 ], [ %12, %.preheader ]
  %15 = getelementptr inbounds nuw i8, ptr %.0244, i64 1
  %16 = sext i8 %14 to i32
  %17 = add i8 %14, -48
  %or.cond.i = icmp ult i8 %17, 10
  br i1 %or.cond.i, label %18, label %20

18:                                               ; preds = %.lr.ph
  %19 = add nsw i32 %16, -48
  br label %hexchar2int.exit

20:                                               ; preds = %.lr.ph
  %21 = add i8 %14, -97
  %or.cond5.i = icmp ult i8 %21, 6
  br i1 %or.cond5.i, label %22, label %24

22:                                               ; preds = %20
  %23 = add nsw i32 %16, -87
  br label %hexchar2int.exit

24:                                               ; preds = %20
  %25 = add i8 %14, -65
  %or.cond8.i = icmp ult i8 %25, 6
  %26 = add nsw i32 %16, -55
  %spec.select.i = select i1 %or.cond8.i, i32 %26, i32 -1
  br label %hexchar2int.exit

hexchar2int.exit:                                 ; preds = %18, %22, %24
  %.0.i = phi i32 [ %19, %18 ], [ %23, %22 ], [ %spec.select.i, %24 ]
  %27 = getelementptr inbounds nuw i8, ptr %.0244, i64 2
  %28 = load i8, ptr %15, align 1, !tbaa !29
  %29 = sext i8 %28 to i32
  %30 = add i8 %28, -48
  %or.cond.i40 = icmp ult i8 %30, 10
  br i1 %or.cond.i40, label %31, label %33

31:                                               ; preds = %hexchar2int.exit
  %32 = add nsw i32 %29, -48
  br label %hexchar2int.exit45

33:                                               ; preds = %hexchar2int.exit
  %34 = add i8 %28, -97
  %or.cond5.i41 = icmp ult i8 %34, 6
  br i1 %or.cond5.i41, label %35, label %37

35:                                               ; preds = %33
  %36 = add nsw i32 %29, -87
  br label %hexchar2int.exit45

37:                                               ; preds = %33
  %38 = add i8 %28, -65
  %or.cond8.i42 = icmp ult i8 %38, 6
  %39 = add nsw i32 %29, -55
  %spec.select.i43 = select i1 %or.cond8.i42, i32 %39, i32 -1
  br label %hexchar2int.exit45

hexchar2int.exit45:                               ; preds = %31, %35, %37
  %.0.i44 = phi i32 [ %32, %31 ], [ %36, %35 ], [ %spec.select.i43, %37 ]
  %40 = icmp sgt i32 %.0.i, -1
  %41 = icmp sgt i32 %.0.i44, -1
  %or.cond.not = select i1 %40, i1 %41, i1 false
  br i1 %or.cond.not, label %42, label %.thread

.thread:                                          ; preds = %hexchar2int.exit45
  tail call void @av_free(ptr noundef nonnull %12) #18
  br label %48

42:                                               ; preds = %hexchar2int.exit45
  %43 = shl nuw nsw i32 %.0.i, 4
  %44 = or i32 %.0.i44, %43
  %45 = trunc i32 %44 to i8
  %46 = getelementptr inbounds nuw i8, ptr %.0263, i64 1
  store i8 %45, ptr %.0263, align 1, !tbaa !29
  %47 = load i8, ptr %27, align 1, !tbaa !29
  %.not37 = icmp eq i8 %47, 0
  br i1 %.not37, label %._crit_edge, label %.lr.ph

._crit_edge:                                      ; preds = %42, %.preheader
  store ptr %12, ptr %1, align 8, !tbaa !33
  store i32 %10, ptr %3, align 4, !tbaa !26
  br label %48

48:                                               ; preds = %.thread, %9, %7, %2, %4, %._crit_edge
  %.0 = phi i32 [ 0, %._crit_edge ], [ 0, %4 ], [ 0, %2 ], [ -22, %7 ], [ -12, %9 ], [ -22, %.thread ]
  ret i32 %.0
}